; Function Attrs: mustprogress uwtable
define void @_ZN5faiss11IndexHNSWPQ5trainElPKf(ptr noundef nonnull align 8 captures(none) dereferenceable(5202) %0, i64 noundef %1, ptr noundef %2) unnamed_addr #1 align 2 {
  tail call void @_ZN5faiss9IndexHNSW5trainElPKf(ptr noundef nonnull align 8 dereferenceable(5202) %0, i64 noundef %1, ptr noundef %2)
  %4 = getelementptr inbounds nuw i8, ptr %0, i64 5192
  %5 = load ptr, ptr %4, align 8, !tbaa !4, !nonnull !45, !noundef !45
  %6 = tail call ptr @__dynamic_cast(ptr nonnull %5, ptr nonnull @_ZTIN5faiss5IndexE, ptr nonnull @_ZTIN5faiss7IndexPQE, i64 0) #13
  %7 = getelementptr inbounds nuw i8, ptr %6, i64 72
  tail call void @_ZN5faiss16ProductQuantizer17compute_sdc_tableEv(ptr noundef nonnull align 8 dereferenceable(216) %7)
  ret void
}